target datalayout = "e-m:e-p270:32:32-p271:32:32-p272:64:64-i64:64-i128:128-f80:128-n8:16:32:64-S128"
target triple = "x86_64-pc-linux-gnu"

; Function Attrs: mustprogress nounwind uwtable
define noundef double @_Z7ArcTan2dd(double noundef %0, double noundef %1) #0 {
  %3 = alloca double, align 8
  %4 = alloca double, align 8
  %5 = alloca double, align 8
  store double %0, ptr %4, align 8
  store double %1, ptr %5, align 8
  %6 = load double, ptr %4, align 8
  %7 = fcmp oeq double %6, 0.000000e+00
  br i1 %7, label %8, label %12

8:                                                ; preds = %2
  %9 = load double, ptr %5, align 8
  %10 = fcmp oeq double %9, 0.000000e+00
  br i1 %10, label %11, label %12

11:                                               ; preds = %8
  store double 0.000000e+00, ptr %3, align 8
  br label %43

12:                                               ; preds = %8, %2
  %13 = load double, ptr %5, align 8
  %14 = fcmp oeq double %13, 0.000000e+00
  br i1 %14, label %15, label %20

15:                                               ; preds = %12
  %16 = load double, ptr %4, align 8
  %17 = fcmp ogt double %16, 0.000000e+00
  br i1 %17, label %18, label %19

18:                                               ; preds = %15
  store double 0x3FF921FB54442D18, ptr %3, align 8
  br label %43

19:                                               ; preds = %15
  store double 0xBFF921FB54442D18, ptr %3, align 8
  br label %43

20:                                               ; preds = %12
  %21 = load double, ptr %5, align 8
  %22 = fcmp oge double %21, 0.000000e+00
  br i1 %22, label %23, label %28

23:                                               ; preds = %20
  %24 = load double, ptr %4, align 8
  %25 = load double, ptr %5, align 8
  %26 = fdiv double %24, %25
  %27 = call double @atan(double noundef %26) #6
  store double %27, ptr %3, align 8
  br label %43

28:                                               ; preds = %20
  %29 = load double, ptr %4, align 8
  %30 = fcmp oge double %29, 0.000000e+00
  br i1 %30, label %31, label %37

31:                                               ; preds = %28
  %32 = load double, ptr %4, align 8
  %33 = load double, ptr %5, align 8
  %34 = fdiv double %32, %33
  %35 = call double @atan(double noundef %34) #6
  %36 = fadd double %35, 0x400921FB54442D18
  store double %36, ptr %3, align 8
  br label %43

37:                                               ; preds = %28
  %38 = load double, ptr %4, align 8
  %39 = load double, ptr %5, align 8
  %40 = fdiv double %38, %39
  %41 = call double @atan(double noundef %40) #6
  %42 = fsub double %41, 0x400921FB54442D18
  store double %42, ptr %3, align 8
  br label %43

43:                                               ; preds = %37, %31, %23, %19, %18, %11
  %44 = load double, ptr %3, align 8
  ret double %44
}