; Function Attrs: mustprogress nofree nounwind willreturn memory(write) uwtable
define noundef double @_Z7ArcTan2dd(double noundef %0, double noundef %1) local_unnamed_addr #2 {
  %3 = fcmp oeq double %0, 0.000000e+00
  %4 = fcmp oeq double %1, 0.000000e+00
  %or.cond = and i1 %3, %4
  br i1 %or.cond, label %21, label %5

5:                                                ; preds = %2
  br i1 %4, label %6, label %8

6:                                                ; preds = %5
  %7 = fcmp ogt double %0, 0.000000e+00
  %. = select i1 %7, double 0x3FF921FB54442D18, double 0xBFF921FB54442D18
  br label %21

8:                                                ; preds = %5
  %9 = fcmp ult double %1, 0.000000e+00
  br i1 %9, label %13, label %10

10:                                               ; preds = %8
  %11 = fdiv double %0, %1
  %12 = tail call double @atan(double noundef %11) #12
  br label %21

13:                                               ; preds = %8
  %14 = fcmp ult double %0, 0.000000e+00
  %15 = fdiv double %0, %1
  %16 = tail call double @atan(double noundef %15) #12
  br i1 %14, label %19, label %17

17:                                               ; preds = %13
  %18 = fadd double %16, 0x400921FB54442D18
  br label %21

19:                                               ; preds = %13
  %20 = fadd double %16, 0xC00921FB54442D18
  br label %21

21:                                               ; preds = %6, %2, %19, %17, %10
  %.0 = phi double [ %12, %10 ], [ %18, %17 ], [ %20, %19 ], [ 0.000000e+00, %2 ], [ %., %6 ]
  ret double %.0
}